target datalayout = "e-m:e-p270:32:32-p271:32:32-p272:64:64-i64:64-i128:128-f80:128-n8:16:32:64-S128"
target triple = "x86_64-pc-linux-gnu"

; Function Attrs: mustprogress uwtable
define hidden ptr @ceres_create_tolerant_loss_function_data(double noundef %0, double noundef %1) #5 personality ptr @__gxx_personality_v0 {
  %3 = alloca double, align 8
  %4 = alloca double, align 8
  %5 = alloca ptr, align 8
  %6 = alloca i32, align 4
  store double %0, ptr %3, align 8, !tbaa !8
  store double %1, ptr %4, align 8, !tbaa !8
  %7 = call noalias noundef nonnull ptr @_Znwm(i64 noundef 32) #19
  %8 = load double, ptr %3, align 8, !tbaa !8
  %9 = load double, ptr %4, align 8, !tbaa !8
  invoke void @_ZN5ceres12TolerantLossC1Edd(ptr noundef nonnull align 8 dereferenceable(32) %7, double noundef %8, double noundef %9)
          to label %10 unwind label %11

10:                                               ; preds = %2
  ret ptr %7

11:                                               ; preds = %2
  %12 = landingpad { ptr, i32 }
          cleanup
  %13 = extractvalue { ptr, i32 } %12, 0
  store ptr %13, ptr %5, align 8
  %14 = extractvalue { ptr, i32 } %12, 1
  store i32 %14, ptr %6, align 4
  call void @_ZdlPvm(ptr noundef %7, i64 noundef 32) #20
  br label %15

15:                                               ; preds = %11
  %16 = load ptr, ptr %5, align 8
  %17 = load i32, ptr %6, align 4
  %18 = insertvalue { ptr, i32 } poison, ptr %16, 0
  %19 = insertvalue { ptr, i32 } %18, i32 %17, 1
  resume { ptr, i32 } %19
}