; Function Attrs: mustprogress uwtable
define hidden noundef nonnull ptr @ceres_create_tolerant_loss_function_data(double noundef %0, double noundef %1) local_unnamed_addr #4 personality ptr @__gxx_personality_v0 {
  %3 = tail call noalias noundef nonnull dereferenceable(32) ptr @_Znwm(i64 noundef 32) #18
  invoke void @_ZN5ceres12TolerantLossC1Edd(ptr noundef nonnull align 8 dereferenceable(32) %3, double noundef %0, double noundef %1)
          to label %4 unwind label %5

4:                                                ; preds = %2
  ret ptr %3

5:                                                ; preds = %2
  %6 = landingpad { ptr, i32 }
          cleanup
  tail call void @_ZdlPvm(ptr noundef nonnull %3, i64 noundef 32) #19
  resume { ptr, i32 } %6
}